; Function Attrs: nounwind uwtable
define hidden i32 @Curl_dynhds_h1_dprint(ptr noundef readonly captures(none) %0, ptr noundef %1) local_unnamed_addr #1 {
  %3 = getelementptr inbounds nuw i8, ptr %0, i64 8
  %4 = load i64, ptr %3, align 8, !tbaa !15
  %.not = icmp eq i64 %4, 0
  br i1 %.not, label %.loopexit, label %.lr.ph

5:                                                ; preds = %.lr.ph
  %6 = add nuw i64 %.021, 1
  %7 = load i64, ptr %3, align 8, !tbaa !15
  %8 = icmp ult i64 %6, %7
  br i1 %8, label %.lr.ph, label %.loopexit, !llvm.loop !33

.lr.ph:                                           ; preds = %2, %5
  %.021 = phi i64 [ %6, %5 ], [ 0, %2 ]
  %9 = load ptr, ptr %0, align 8, !tbaa !14
  %10 = getelementptr inbounds nuw ptr, ptr %9, i64 %.021
  %11 = load ptr, ptr %10, align 8, !tbaa !16
  %12 = getelementptr inbounds nuw i8, ptr %11, i64 16
  %13 = load i64, ptr %12, align 8, !tbaa !22
  %14 = trunc i64 %13 to i32
  %15 = load ptr, ptr %11, align 8, !tbaa !25
  %16 = getelementptr inbounds nuw i8, ptr %11, i64 24
  %17 = load i64, ptr %16, align 8, !tbaa !28
  %18 = trunc i64 %17 to i32
  %19 = getelementptr inbounds nuw i8, ptr %11, i64 8
  %20 = load ptr, ptr %19, align 8, !tbaa !27
  %21 = tail call i32 (ptr, ptr, ...) @Curl_dyn_addf(ptr noundef %1, ptr noundef nonnull @.str, i32 noundef %14, ptr noundef %15, i32 noundef %18, ptr noundef %20) #9
  %.not20 = icmp eq i32 %21, 0
  br i1 %.not20, label %5, label %.loopexit

.loopexit:                                        ; preds = %.lr.ph, %5, %2
  %.017 = phi i32 [ 0, %2 ], [ %21, %.lr.ph ], [ 0, %5 ]
  ret i32 %.017
}